; Function Attrs: mustprogress nofree norecurse nosync nounwind willreturn memory(argmem: write) uwtable
define void @stb_vorbis_flush_pushdata(ptr noundef writeonly captures(none) initializes((1272, 1276), (1412, 1416), (1765, 1766), (1800, 1812), (1892, 1900)) %0) local_unnamed_addr #0 {
  %2 = getelementptr inbounds nuw i8, ptr %0, i64 1272
  store i32 0, ptr %2, align 8, !tbaa !182
  %3 = getelementptr inbounds nuw i8, ptr %0, i64 1808
  store i32 0, ptr %3, align 8, !tbaa !269
  %4 = getelementptr inbounds nuw i8, ptr %0, i64 1800
  store i32 0, ptr %4, align 8, !tbaa !180
  %5 = getelementptr inbounds nuw i8, ptr %0, i64 1412
  store i32 0, ptr %5, align 4, !tbaa !181
  %6 = getelementptr inbounds nuw i8, ptr %0, i64 1765
  store i8 0, ptr %6, align 1, !tbaa !66
  %7 = getelementptr inbounds nuw i8, ptr %0, i64 1804
  store i32 0, ptr %7, align 4, !tbaa !187
  %8 = getelementptr inbounds nuw i8, ptr %0, i64 1892
  store i32 0, ptr %8, align 4, !tbaa !155
  %9 = getelementptr inbounds nuw i8, ptr %0, i64 1896
  store i32 0, ptr %9, align 8, !tbaa !154
  ret void
}